
_main:

;MyProject.c,80 :: 		void main() {
;MyProject.c,81 :: 		config();
	CALL        _config+0, 0
;MyProject.c,82 :: 		wifi_config ();
	CALL        _wifi_config+0, 0
;MyProject.c,83 :: 		while(1){
L_main0:
;MyProject.c,93 :: 		}
	GOTO        L_main0
;MyProject.c,94 :: 		}
L_end_main:
	GOTO        $+0
; end of _main

_config:

;MyProject.c,95 :: 		void config(){
;MyProject.c,96 :: 		UART1_Init(115200);
	BSF         BAUDCON+0, 3, 0
	CLRF        SPBRGH+0 
	MOVLW       8
	MOVWF       SPBRG+0 
	BSF         TXSTA+0, 2, 0
	CALL        _UART1_Init+0, 0
;MyProject.c,97 :: 		interrupt_config();
	CALL        _interrupt_config+0, 0
;MyProject.c,98 :: 		Lcd_Init();
	CALL        _Lcd_Init+0, 0
;MyProject.c,99 :: 		LCD_CMD(_LCD_CURSOR_OFF);
	MOVLW       12
	MOVWF       FARG_Lcd_Cmd_out_char+0 
	CALL        _Lcd_Cmd+0, 0
;MyProject.c,100 :: 		LCD_OUT(1,1,"WIFI config ");
	MOVLW       1
	MOVWF       FARG_Lcd_Out_row+0 
	MOVLW       1
	MOVWF       FARG_Lcd_Out_column+0 
	MOVLW       ?lstr1_MyProject+0
	MOVWF       FARG_Lcd_Out_text+0 
	MOVLW       hi_addr(?lstr1_MyProject+0)
	MOVWF       FARG_Lcd_Out_text+1 
	CALL        _Lcd_Out+0, 0
;MyProject.c,101 :: 		delay_ms(1000);
	MOVLW       6
	MOVWF       R11, 0
	MOVLW       19
	MOVWF       R12, 0
	MOVLW       173
	MOVWF       R13, 0
L_config2:
	DECFSZ      R13, 1, 1
	BRA         L_config2
	DECFSZ      R12, 1, 1
	BRA         L_config2
	DECFSZ      R11, 1, 1
	BRA         L_config2
	NOP
	NOP
;MyProject.c,102 :: 		lcd_cmd(_LCD_CLEAR);
	MOVLW       1
	MOVWF       FARG_Lcd_Cmd_out_char+0 
	CALL        _Lcd_Cmd+0, 0
;MyProject.c,103 :: 		}
L_end_config:
	RETURN      0
; end of _config

_uart1_write_at:

;MyProject.c,104 :: 		void uart1_write_at(char *_data){
;MyProject.c,105 :: 		UART1_write_Text(_data);
	MOVF        FARG_uart1_write_at__data+0, 0 
	MOVWF       FARG_UART1_Write_Text_uart_text+0 
	MOVF        FARG_uart1_write_at__data+1, 0 
	MOVWF       FARG_UART1_Write_Text_uart_text+1 
	CALL        _UART1_Write_Text+0, 0
;MyProject.c,106 :: 		UART1_write(0x0D);
	MOVLW       13
	MOVWF       FARG_UART1_Write_data_+0 
	CALL        _UART1_Write+0, 0
;MyProject.c,107 :: 		UART1_write(0x0A);
	MOVLW       10
	MOVWF       FARG_UART1_Write_data_+0 
	CALL        _UART1_Write+0, 0
;MyProject.c,108 :: 		}
L_end_uart1_write_at:
	RETURN      0
; end of _uart1_write_at

_UART1_write_text_const:

;MyProject.c,110 :: 		void UART1_write_text_const(const char *_data){
;MyProject.c,111 :: 		while(*_data){
L_UART1_write_text_const3:
	MOVF        FARG_UART1_write_text_const__data+0, 0 
	MOVWF       TBLPTRL 
	MOVF        FARG_UART1_write_text_const__data+1, 0 
	MOVWF       TBLPTRH 
	MOVF        FARG_UART1_write_text_const__data+2, 0 
	MOVWF       TBLPTRU 
	TBLRD*+
	MOVFF       TABLAT+0, R0
	MOVF        R0, 1 
	BTFSC       STATUS+0, 2 
	GOTO        L_UART1_write_text_const4
;MyProject.c,112 :: 		UART1_write(*_data++);
	MOVF        FARG_UART1_write_text_const__data+0, 0 
	MOVWF       TBLPTRL 
	MOVF        FARG_UART1_write_text_const__data+1, 0 
	MOVWF       TBLPTRH 
	MOVF        FARG_UART1_write_text_const__data+2, 0 
	MOVWF       TBLPTRU 
	TBLRD*+
	MOVFF       TABLAT+0, FARG_UART1_Write_data_+0
	CALL        _UART1_Write+0, 0
	MOVLW       1
	ADDWF       FARG_UART1_write_text_const__data+0, 1 
	MOVLW       0
	ADDWFC      FARG_UART1_write_text_const__data+1, 1 
	ADDWFC      FARG_UART1_write_text_const__data+2, 1 
;MyProject.c,113 :: 		}
	GOTO        L_UART1_write_text_const3
L_UART1_write_text_const4:
;MyProject.c,115 :: 		}
L_end_UART1_write_text_const:
	RETURN      0
; end of _UART1_write_text_const

_UART1_write_data:

;MyProject.c,116 :: 		void UART1_write_data(char *_data){
;MyProject.c,117 :: 		while(*_data){
L_UART1_write_data5:
	MOVFF       FARG_UART1_write_data__data+0, FSR0
	MOVFF       FARG_UART1_write_data__data+1, FSR0H
	MOVF        POSTINC0+0, 1 
	BTFSC       STATUS+0, 2 
	GOTO        L_UART1_write_data6
;MyProject.c,118 :: 		UART1_write(*_data++);
	MOVFF       FARG_UART1_write_data__data+0, FSR0
	MOVFF       FARG_UART1_write_data__data+1, FSR0H
	MOVF        POSTINC0+0, 0 
	MOVWF       FARG_UART1_Write_data_+0 
	CALL        _UART1_Write+0, 0
	INFSNZ      FARG_UART1_write_data__data+0, 1 
	INCF        FARG_UART1_write_data__data+1, 1 
;MyProject.c,120 :: 		}
	GOTO        L_UART1_write_data5
L_UART1_write_data6:
;MyProject.c,122 :: 		}
L_end_UART1_write_data:
	RETURN      0
; end of _UART1_write_data

_new_line:

;MyProject.c,123 :: 		void new_line(){
;MyProject.c,124 :: 		UART1_write(0x0D);
	MOVLW       13
	MOVWF       FARG_UART1_Write_data_+0 
	CALL        _UART1_Write+0, 0
;MyProject.c,125 :: 		UART1_write(0x0A);
	MOVLW       10
	MOVWF       FARG_UART1_Write_data_+0 
	CALL        _UART1_Write+0, 0
;MyProject.c,127 :: 		}
L_end_new_line:
	RETURN      0
; end of _new_line

_reset_buff:

;MyProject.c,128 :: 		void reset_buff(){
;MyProject.c,129 :: 		memset(buff,0,data_len);
	MOVLW       _buff+0
	MOVWF       FARG_memset_p1+0 
	MOVLW       hi_addr(_buff+0)
	MOVWF       FARG_memset_p1+1 
	CLRF        FARG_memset_character+0 
	MOVF        _data_len+0, 0 
	MOVWF       FARG_memset_n+0 
	MOVF        _data_len+1, 0 
	MOVWF       FARG_memset_n+1 
	CALL        _memset+0, 0
;MyProject.c,130 :: 		data_ready=0;
	CLRF        _data_ready+0 
;MyProject.c,131 :: 		data_len=0;
	CLRF        _data_len+0 
	CLRF        _data_len+1 
;MyProject.c,132 :: 		}
L_end_reset_buff:
	RETURN      0
; end of _reset_buff

_reset_wifi:

;MyProject.c,133 :: 		void reset_wifi(){
;MyProject.c,138 :: 		}
L_end_reset_wifi:
	RETURN      0
; end of _reset_wifi

_get_string:

;MyProject.c,139 :: 		char get_string(char *string,char *from, char _from,char *to,char _to,char *get){
;MyProject.c,142 :: 		char lenght=0;
;MyProject.c,143 :: 		p1 = strstr(string,from)+ _from ;
	MOVF        FARG_get_string_string+0, 0 
	MOVWF       FARG_strstr_s1+0 
	MOVF        FARG_get_string_string+1, 0 
	MOVWF       FARG_strstr_s1+1 
	MOVF        FARG_get_string_from+0, 0 
	MOVWF       FARG_strstr_s2+0 
	MOVF        FARG_get_string_from+1, 0 
	MOVWF       FARG_strstr_s2+1 
	CALL        _strstr+0, 0
	MOVF        FARG_get_string__from+0, 0 
	ADDWF       R0, 1 
	MOVLW       0
	ADDWFC      R1, 1 
	MOVF        R0, 0 
	MOVWF       get_string_p1_L0+0 
	MOVF        R1, 0 
	MOVWF       get_string_p1_L0+1 
;MyProject.c,145 :: 		p2= strstr(p1,to ) + _to;
	MOVF        R0, 0 
	MOVWF       FARG_strstr_s1+0 
	MOVF        R1, 0 
	MOVWF       FARG_strstr_s1+1 
	MOVF        FARG_get_string_to+0, 0 
	MOVWF       FARG_strstr_s2+0 
	MOVF        FARG_get_string_to+1, 0 
	MOVWF       FARG_strstr_s2+1 
	CALL        _strstr+0, 0
	MOVF        FARG_get_string__to+0, 0 
	ADDWF       R0, 0 
	MOVWF       FARG_strncpy_size+0 
	MOVLW       0
	ADDWFC      R1, 0 
	MOVWF       FARG_strncpy_size+1 
;MyProject.c,146 :: 		lenght=p2-p1;
	MOVF        get_string_p1_L0+0, 0 
	SUBWF       FARG_strncpy_size+0, 1 
	MOVF        get_string_p1_L0+1, 0 
	SUBWFB      FARG_strncpy_size+1, 1 
;MyProject.c,147 :: 		strncpy(get,p1,lenght);
	MOVF        FARG_get_string_get+0, 0 
	MOVWF       FARG_strncpy_to+0 
	MOVF        FARG_get_string_get+1, 0 
	MOVWF       FARG_strncpy_to+1 
	MOVF        get_string_p1_L0+0, 0 
	MOVWF       FARG_strncpy_from+0 
	MOVF        get_string_p1_L0+1, 0 
	MOVWF       FARG_strncpy_from+1 
	MOVLW       0
	MOVWF       FARG_strncpy_size+1 
	CALL        _strncpy+0, 0
;MyProject.c,149 :: 		}
L_end_get_string:
	RETURN      0
; end of _get_string

_find_text:

;MyProject.c,150 :: 		char find_text ( char *string ,char *string_find ){
;MyProject.c,151 :: 		unsigned int matched =0;
	CLRF        find_text_matched_L0+0 
	CLRF        find_text_matched_L0+1 
	CLRF        find_text_index_string_L0+0 
	CLRF        find_text_index_string_L0+1 
	CLRF        find_text_length_string_find_L0+0 
	CLRF        find_text_length_string_find_L0+1 
	CLRF        find_text_length_string_L0+0 
	CLRF        find_text_length_string_L0+1 
;MyProject.c,157 :: 		length_string_find = strlen(string_find );
	MOVF        FARG_find_text_string_find+0, 0 
	MOVWF       FARG_strlen_s+0 
	MOVF        FARG_find_text_string_find+1, 0 
	MOVWF       FARG_strlen_s+1 
	CALL        _strlen+0, 0
	MOVF        R0, 0 
	MOVWF       find_text_length_string_find_L0+0 
	MOVF        R1, 0 
	MOVWF       find_text_length_string_find_L0+1 
;MyProject.c,158 :: 		length_string = strlen( string);
	MOVF        FARG_find_text_string+0, 0 
	MOVWF       FARG_strlen_s+0 
	MOVF        FARG_find_text_string+1, 0 
	MOVWF       FARG_strlen_s+1 
	CALL        _strlen+0, 0
	MOVF        R0, 0 
	MOVWF       find_text_length_string_L0+0 
	MOVF        R1, 0 
	MOVWF       find_text_length_string_L0+1 
;MyProject.c,159 :: 		if(   length_string_find> length_string){
	MOVF        find_text_length_string_find_L0+1, 0 
	SUBWF       R1, 0 
	BTFSS       STATUS+0, 2 
	GOTO        L__find_text69
	MOVF        find_text_length_string_find_L0+0, 0 
	SUBWF       R0, 0 
L__find_text69:
	BTFSC       STATUS+0, 0 
	GOTO        L_find_text7
;MyProject.c,160 :: 		return 0;
	CLRF        R0 
	GOTO        L_end_find_text
;MyProject.c,161 :: 		}
L_find_text7:
;MyProject.c,162 :: 		for (index_string;index_string <length_string; index_string++){
L_find_text8:
	MOVF        find_text_length_string_L0+1, 0 
	SUBWF       find_text_index_string_L0+1, 0 
	BTFSS       STATUS+0, 2 
	GOTO        L__find_text70
	MOVF        find_text_length_string_L0+0, 0 
	SUBWF       find_text_index_string_L0+0, 0 
L__find_text70:
	BTFSC       STATUS+0, 0 
	GOTO        L_find_text9
;MyProject.c,163 :: 		if(string[index_string]==string_find[matched]){
	MOVF        find_text_index_string_L0+0, 0 
	ADDWF       FARG_find_text_string+0, 0 
	MOVWF       FSR0 
	MOVF        find_text_index_string_L0+1, 0 
	ADDWFC      FARG_find_text_string+1, 0 
	MOVWF       FSR0H 
	MOVF        find_text_matched_L0+0, 0 
	ADDWF       FARG_find_text_string_find+0, 0 
	MOVWF       FSR2 
	MOVF        find_text_matched_L0+1, 0 
	ADDWFC      FARG_find_text_string_find+1, 0 
	MOVWF       FSR2H 
	MOVF        POSTINC0+0, 0 
	XORWF       POSTINC2+0, 0 
	BTFSS       STATUS+0, 2 
	GOTO        L_find_text11
;MyProject.c,164 :: 		matched++ ;
	INFSNZ      find_text_matched_L0+0, 1 
	INCF        find_text_matched_L0+1, 1 
;MyProject.c,165 :: 		if(length_string_find==matched ){
	MOVF        find_text_length_string_find_L0+1, 0 
	XORWF       find_text_matched_L0+1, 0 
	BTFSS       STATUS+0, 2 
	GOTO        L__find_text71
	MOVF        find_text_matched_L0+0, 0 
	XORWF       find_text_length_string_find_L0+0, 0 
L__find_text71:
	BTFSS       STATUS+0, 2 
	GOTO        L_find_text12
;MyProject.c,166 :: 		return 1;
	MOVLW       1
	MOVWF       R0 
	GOTO        L_end_find_text
;MyProject.c,167 :: 		}
L_find_text12:
;MyProject.c,168 :: 		}
	GOTO        L_find_text13
L_find_text11:
;MyProject.c,170 :: 		matched=0;
	CLRF        find_text_matched_L0+0 
	CLRF        find_text_matched_L0+1 
;MyProject.c,171 :: 		}
L_find_text13:
;MyProject.c,162 :: 		for (index_string;index_string <length_string; index_string++){
	INFSNZ      find_text_index_string_L0+0, 1 
	INCF        find_text_index_string_L0+1, 1 
;MyProject.c,173 :: 		}
	GOTO        L_find_text8
L_find_text9:
;MyProject.c,174 :: 		return 0;
	CLRF        R0 
;MyProject.c,176 :: 		}
L_end_find_text:
	RETURN      0
; end of _find_text

_respons_success:

;MyProject.c,177 :: 		char respons_success(){
;MyProject.c,179 :: 		while(!data_ready);
L_respons_success14:
	MOVF        _data_ready+0, 1 
	BTFSS       STATUS+0, 2 
	GOTO        L_respons_success15
	GOTO        L_respons_success14
L_respons_success15:
;MyProject.c,180 :: 		if( find_text(buff,"ok")==1){result=ok;}
	MOVLW       _buff+0
	MOVWF       FARG_find_text_string+0 
	MOVLW       hi_addr(_buff+0)
	MOVWF       FARG_find_text_string+1 
	MOVLW       ?lstr2_MyProject+0
	MOVWF       FARG_find_text_string_find+0 
	MOVLW       hi_addr(?lstr2_MyProject+0)
	MOVWF       FARG_find_text_string_find+1 
	CALL        _find_text+0, 0
	MOVF        R0, 0 
	XORLW       1
	BTFSS       STATUS+0, 2 
	GOTO        L_respons_success16
	MOVLW       1
	MOVWF       respons_success_result_L0+0 
	GOTO        L_respons_success17
L_respons_success16:
;MyProject.c,181 :: 		else if(find_text (buff,"no change")==1){result=no_change;}
	MOVLW       _buff+0
	MOVWF       FARG_find_text_string+0 
	MOVLW       hi_addr(_buff+0)
	MOVWF       FARG_find_text_string+1 
	MOVLW       ?lstr3_MyProject+0
	MOVWF       FARG_find_text_string_find+0 
	MOVLW       hi_addr(?lstr3_MyProject+0)
	MOVWF       FARG_find_text_string_find+1 
	CALL        _find_text+0, 0
	MOVF        R0, 0 
	XORLW       1
	BTFSS       STATUS+0, 2 
	GOTO        L_respons_success18
	MOVLW       1
	MOVWF       respons_success_result_L0+0 
	GOTO        L_respons_success19
L_respons_success18:
;MyProject.c,182 :: 		else if(find_text (buff,">")==1){result=send_ready;}
	MOVLW       _buff+0
	MOVWF       FARG_find_text_string+0 
	MOVLW       hi_addr(_buff+0)
	MOVWF       FARG_find_text_string+1 
	MOVLW       ?lstr4_MyProject+0
	MOVWF       FARG_find_text_string_find+0 
	MOVLW       hi_addr(?lstr4_MyProject+0)
	MOVWF       FARG_find_text_string_find+1 
	CALL        _find_text+0, 0
	MOVF        R0, 0 
	XORLW       1
	BTFSS       STATUS+0, 2 
	GOTO        L_respons_success20
	MOVLW       1
	MOVWF       respons_success_result_L0+0 
	GOTO        L_respons_success21
L_respons_success20:
;MyProject.c,183 :: 		else result=0;
	CLRF        respons_success_result_L0+0 
L_respons_success21:
L_respons_success19:
L_respons_success17:
;MyProject.c,184 :: 		reset_buff();
	CALL        _reset_buff+0, 0
;MyProject.c,185 :: 		return result;
	MOVF        respons_success_result_L0+0, 0 
	MOVWF       R0 
;MyProject.c,186 :: 		}
L_end_respons_success:
	RETURN      0
; end of _respons_success

_get_ip_mac:

;MyProject.c,187 :: 		void get_ip_mac(){
;MyProject.c,188 :: 		while(!data_ready);
L_get_ip_mac22:
	MOVF        _data_ready+0, 1 
	BTFSS       STATUS+0, 2 
	GOTO        L_get_ip_mac23
	GOTO        L_get_ip_mac22
L_get_ip_mac23:
;MyProject.c,189 :: 		reset_buff();
	CALL        _reset_buff+0, 0
;MyProject.c,190 :: 		lcd_cmd(_LCD_CLEAR);
	MOVLW       1
	MOVWF       FARG_Lcd_Cmd_out_char+0 
	CALL        _Lcd_Cmd+0, 0
;MyProject.c,191 :: 		while(!data_ready);
L_get_ip_mac24:
	MOVF        _data_ready+0, 1 
	BTFSS       STATUS+0, 2 
	GOTO        L_get_ip_mac25
	GOTO        L_get_ip_mac24
L_get_ip_mac25:
;MyProject.c,192 :: 		get_string(buff, "APIP,\"",6,"\"",0,APIP);
	MOVLW       _buff+0
	MOVWF       FARG_get_string_string+0 
	MOVLW       hi_addr(_buff+0)
	MOVWF       FARG_get_string_string+1 
	MOVLW       ?lstr5_MyProject+0
	MOVWF       FARG_get_string_from+0 
	MOVLW       hi_addr(?lstr5_MyProject+0)
	MOVWF       FARG_get_string_from+1 
	MOVLW       6
	MOVWF       FARG_get_string__from+0 
	MOVLW       ?lstr6_MyProject+0
	MOVWF       FARG_get_string_to+0 
	MOVLW       hi_addr(?lstr6_MyProject+0)
	MOVWF       FARG_get_string_to+1 
	CLRF        FARG_get_string__to+0 
	MOVLW       _APIP+0
	MOVWF       FARG_get_string_get+0 
	MOVLW       hi_addr(_APIP+0)
	MOVWF       FARG_get_string_get+1 
	CALL        _get_string+0, 0
;MyProject.c,193 :: 		LCD_OUT(1,1,APIP);
	MOVLW       1
	MOVWF       FARG_Lcd_Out_row+0 
	MOVLW       1
	MOVWF       FARG_Lcd_Out_column+0 
	MOVLW       _APIP+0
	MOVWF       FARG_Lcd_Out_text+0 
	MOVLW       hi_addr(_APIP+0)
	MOVWF       FARG_Lcd_Out_text+1 
	CALL        _Lcd_Out+0, 0
;MyProject.c,195 :: 		get_string(buff, "APMAC,\"",7,"\"",0,APMAC);
	MOVLW       _buff+0
	MOVWF       FARG_get_string_string+0 
	MOVLW       hi_addr(_buff+0)
	MOVWF       FARG_get_string_string+1 
	MOVLW       ?lstr7_MyProject+0
	MOVWF       FARG_get_string_from+0 
	MOVLW       hi_addr(?lstr7_MyProject+0)
	MOVWF       FARG_get_string_from+1 
	MOVLW       7
	MOVWF       FARG_get_string__from+0 
	MOVLW       ?lstr8_MyProject+0
	MOVWF       FARG_get_string_to+0 
	MOVLW       hi_addr(?lstr8_MyProject+0)
	MOVWF       FARG_get_string_to+1 
	CLRF        FARG_get_string__to+0 
	MOVLW       _APMAC+0
	MOVWF       FARG_get_string_get+0 
	MOVLW       hi_addr(_APMAC+0)
	MOVWF       FARG_get_string_get+1 
	CALL        _get_string+0, 0
;MyProject.c,196 :: 		LCD_OUT(1,2,APIP);
	MOVLW       1
	MOVWF       FARG_Lcd_Out_row+0 
	MOVLW       2
	MOVWF       FARG_Lcd_Out_column+0 
	MOVLW       _APIP+0
	MOVWF       FARG_Lcd_Out_text+0 
	MOVLW       hi_addr(_APIP+0)
	MOVWF       FARG_Lcd_Out_text+1 
	CALL        _Lcd_Out+0, 0
;MyProject.c,198 :: 		get_string(buff, "STAIP,\"",7,"\"",0,STAIP);
	MOVLW       _buff+0
	MOVWF       FARG_get_string_string+0 
	MOVLW       hi_addr(_buff+0)
	MOVWF       FARG_get_string_string+1 
	MOVLW       ?lstr9_MyProject+0
	MOVWF       FARG_get_string_from+0 
	MOVLW       hi_addr(?lstr9_MyProject+0)
	MOVWF       FARG_get_string_from+1 
	MOVLW       7
	MOVWF       FARG_get_string__from+0 
	MOVLW       ?lstr10_MyProject+0
	MOVWF       FARG_get_string_to+0 
	MOVLW       hi_addr(?lstr10_MyProject+0)
	MOVWF       FARG_get_string_to+1 
	CLRF        FARG_get_string__to+0 
	MOVLW       _STAIP+0
	MOVWF       FARG_get_string_get+0 
	MOVLW       hi_addr(_STAIP+0)
	MOVWF       FARG_get_string_get+1 
	CALL        _get_string+0, 0
;MyProject.c,199 :: 		LCD_OUT(1,3,APIP);
	MOVLW       1
	MOVWF       FARG_Lcd_Out_row+0 
	MOVLW       3
	MOVWF       FARG_Lcd_Out_column+0 
	MOVLW       _APIP+0
	MOVWF       FARG_Lcd_Out_text+0 
	MOVLW       hi_addr(_APIP+0)
	MOVWF       FARG_Lcd_Out_text+1 
	CALL        _Lcd_Out+0, 0
;MyProject.c,201 :: 		get_string(buff, "STAMAC,\"",8,"\"",0,STAMAC);
	MOVLW       _buff+0
	MOVWF       FARG_get_string_string+0 
	MOVLW       hi_addr(_buff+0)
	MOVWF       FARG_get_string_string+1 
	MOVLW       ?lstr11_MyProject+0
	MOVWF       FARG_get_string_from+0 
	MOVLW       hi_addr(?lstr11_MyProject+0)
	MOVWF       FARG_get_string_from+1 
	MOVLW       8
	MOVWF       FARG_get_string__from+0 
	MOVLW       ?lstr12_MyProject+0
	MOVWF       FARG_get_string_to+0 
	MOVLW       hi_addr(?lstr12_MyProject+0)
	MOVWF       FARG_get_string_to+1 
	CLRF        FARG_get_string__to+0 
	MOVLW       _STAMAC+0
	MOVWF       FARG_get_string_get+0 
	MOVLW       hi_addr(_STAMAC+0)
	MOVWF       FARG_get_string_get+1 
	CALL        _get_string+0, 0
;MyProject.c,202 :: 		LCD_OUT(1,4,APIP);
	MOVLW       1
	MOVWF       FARG_Lcd_Out_row+0 
	MOVLW       4
	MOVWF       FARG_Lcd_Out_column+0 
	MOVLW       _APIP+0
	MOVWF       FARG_Lcd_Out_text+0 
	MOVLW       hi_addr(_APIP+0)
	MOVWF       FARG_Lcd_Out_text+1 
	CALL        _Lcd_Out+0, 0
;MyProject.c,204 :: 		reset_buff();
	CALL        _reset_buff+0, 0
;MyProject.c,206 :: 		}
L_end_get_ip_mac:
	RETURN      0
; end of _get_ip_mac

_wifi_config:

;MyProject.c,207 :: 		void wifi_config (){
;MyProject.c,208 :: 		data_ready=0;
	CLRF        _data_ready+0 
;MyProject.c,209 :: 		data_len=0;
	CLRF        _data_len+0 
	CLRF        _data_len+1 
;MyProject.c,210 :: 		memset(buff,0,500);
	MOVLW       _buff+0
	MOVWF       FARG_memset_p1+0 
	MOVLW       hi_addr(_buff+0)
	MOVWF       FARG_memset_p1+1 
	CLRF        FARG_memset_character+0 
	MOVLW       244
	MOVWF       FARG_memset_n+0 
	MOVLW       1
	MOVWF       FARG_memset_n+1 
	CALL        _memset+0, 0
;MyProject.c,211 :: 		lcd_out(1,1,"restarting wifi");
	MOVLW       1
	MOVWF       FARG_Lcd_Out_row+0 
	MOVLW       1
	MOVWF       FARG_Lcd_Out_column+0 
	MOVLW       ?lstr13_MyProject+0
	MOVWF       FARG_Lcd_Out_text+0 
	MOVLW       hi_addr(?lstr13_MyProject+0)
	MOVWF       FARG_Lcd_Out_text+1 
	CALL        _Lcd_Out+0, 0
;MyProject.c,212 :: 		lcd_out(1,2,"please wait.....");
	MOVLW       1
	MOVWF       FARG_Lcd_Out_row+0 
	MOVLW       2
	MOVWF       FARG_Lcd_Out_column+0 
	MOVLW       ?lstr14_MyProject+0
	MOVWF       FARG_Lcd_Out_text+0 
	MOVLW       hi_addr(?lstr14_MyProject+0)
	MOVWF       FARG_Lcd_Out_text+1 
	CALL        _Lcd_Out+0, 0
;MyProject.c,219 :: 		uart1_write_at("AT");
	MOVLW       ?lstr15_MyProject+0
	MOVWF       FARG_uart1_write_at__data+0 
	MOVLW       hi_addr(?lstr15_MyProject+0)
	MOVWF       FARG_uart1_write_at__data+1 
	CALL        _uart1_write_at+0, 0
;MyProject.c,220 :: 		while( respons_success()!=OK);
L_wifi_config26:
	CALL        _respons_success+0, 0
	MOVF        R0, 0 
	XORLW       1
	BTFSC       STATUS+0, 2 
	GOTO        L_wifi_config27
	GOTO        L_wifi_config26
L_wifi_config27:
;MyProject.c,221 :: 		delay_ms(1000);
	MOVLW       6
	MOVWF       R11, 0
	MOVLW       19
	MOVWF       R12, 0
	MOVLW       173
	MOVWF       R13, 0
L_wifi_config28:
	DECFSZ      R13, 1, 1
	BRA         L_wifi_config28
	DECFSZ      R12, 1, 1
	BRA         L_wifi_config28
	DECFSZ      R11, 1, 1
	BRA         L_wifi_config28
	NOP
	NOP
;MyProject.c,223 :: 		lcd_cmd(_LCD_CLEAR);
	MOVLW       1
	MOVWF       FARG_Lcd_Cmd_out_char+0 
	CALL        _Lcd_Cmd+0, 0
;MyProject.c,226 :: 		lcd_out(1,1,"DISCONNECTING WIFI");
	MOVLW       1
	MOVWF       FARG_Lcd_Out_row+0 
	MOVLW       1
	MOVWF       FARG_Lcd_Out_column+0 
	MOVLW       ?lstr16_MyProject+0
	MOVWF       FARG_Lcd_Out_text+0 
	MOVLW       hi_addr(?lstr16_MyProject+0)
	MOVWF       FARG_Lcd_Out_text+1 
	CALL        _Lcd_Out+0, 0
;MyProject.c,227 :: 		lcd_out(1,2,"please wait .....");
	MOVLW       1
	MOVWF       FARG_Lcd_Out_row+0 
	MOVLW       2
	MOVWF       FARG_Lcd_Out_column+0 
	MOVLW       ?lstr17_MyProject+0
	MOVWF       FARG_Lcd_Out_text+0 
	MOVLW       hi_addr(?lstr17_MyProject+0)
	MOVWF       FARG_Lcd_Out_text+1 
	CALL        _Lcd_Out+0, 0
;MyProject.c,228 :: 		uart1_write_at("AT+CWQAP");
	MOVLW       ?lstr18_MyProject+0
	MOVWF       FARG_uart1_write_at__data+0 
	MOVLW       hi_addr(?lstr18_MyProject+0)
	MOVWF       FARG_uart1_write_at__data+1 
	CALL        _uart1_write_at+0, 0
;MyProject.c,229 :: 		while( respons_success()!=OK);
L_wifi_config29:
	CALL        _respons_success+0, 0
	MOVF        R0, 0 
	XORLW       1
	BTFSC       STATUS+0, 2 
	GOTO        L_wifi_config30
	GOTO        L_wifi_config29
L_wifi_config30:
;MyProject.c,230 :: 		delay_ms(1000);
	MOVLW       6
	MOVWF       R11, 0
	MOVLW       19
	MOVWF       R12, 0
	MOVLW       173
	MOVWF       R13, 0
L_wifi_config31:
	DECFSZ      R13, 1, 1
	BRA         L_wifi_config31
	DECFSZ      R12, 1, 1
	BRA         L_wifi_config31
	DECFSZ      R11, 1, 1
	BRA         L_wifi_config31
	NOP
	NOP
;MyProject.c,232 :: 		lcd_cmd(_LCD_CLEAR);
	MOVLW       1
	MOVWF       FARG_Lcd_Cmd_out_char+0 
	CALL        _Lcd_Cmd+0, 0
;MyProject.c,234 :: 		lcd_out(1,1,"SETTING MODE");
	MOVLW       1
	MOVWF       FARG_Lcd_Out_row+0 
	MOVLW       1
	MOVWF       FARG_Lcd_Out_column+0 
	MOVLW       ?lstr19_MyProject+0
	MOVWF       FARG_Lcd_Out_text+0 
	MOVLW       hi_addr(?lstr19_MyProject+0)
	MOVWF       FARG_Lcd_Out_text+1 
	CALL        _Lcd_Out+0, 0
;MyProject.c,235 :: 		lcd_out(1,2,"please wait .....");
	MOVLW       1
	MOVWF       FARG_Lcd_Out_row+0 
	MOVLW       2
	MOVWF       FARG_Lcd_Out_column+0 
	MOVLW       ?lstr20_MyProject+0
	MOVWF       FARG_Lcd_Out_text+0 
	MOVLW       hi_addr(?lstr20_MyProject+0)
	MOVWF       FARG_Lcd_Out_text+1 
	CALL        _Lcd_Out+0, 0
;MyProject.c,236 :: 		uart1_write_at("AT+CWMODE=3");
	MOVLW       ?lstr21_MyProject+0
	MOVWF       FARG_uart1_write_at__data+0 
	MOVLW       hi_addr(?lstr21_MyProject+0)
	MOVWF       FARG_uart1_write_at__data+1 
	CALL        _uart1_write_at+0, 0
;MyProject.c,237 :: 		while( respons_success()!=OK);
L_wifi_config32:
	CALL        _respons_success+0, 0
	MOVF        R0, 0 
	XORLW       1
	BTFSC       STATUS+0, 2 
	GOTO        L_wifi_config33
	GOTO        L_wifi_config32
L_wifi_config33:
;MyProject.c,238 :: 		delay_ms(1000);
	MOVLW       6
	MOVWF       R11, 0
	MOVLW       19
	MOVWF       R12, 0
	MOVLW       173
	MOVWF       R13, 0
L_wifi_config34:
	DECFSZ      R13, 1, 1
	BRA         L_wifi_config34
	DECFSZ      R12, 1, 1
	BRA         L_wifi_config34
	DECFSZ      R11, 1, 1
	BRA         L_wifi_config34
	NOP
	NOP
;MyProject.c,240 :: 		lcd_cmd(_LCD_CLEAR);
	MOVLW       1
	MOVWF       FARG_Lcd_Cmd_out_char+0 
	CALL        _Lcd_Cmd+0, 0
;MyProject.c,241 :: 		lcd_out(1,1,"SETTING CONNECTION ");
	MOVLW       1
	MOVWF       FARG_Lcd_Out_row+0 
	MOVLW       1
	MOVWF       FARG_Lcd_Out_column+0 
	MOVLW       ?lstr22_MyProject+0
	MOVWF       FARG_Lcd_Out_text+0 
	MOVLW       hi_addr(?lstr22_MyProject+0)
	MOVWF       FARG_Lcd_Out_text+1 
	CALL        _Lcd_Out+0, 0
;MyProject.c,242 :: 		lcd_out(1,2,"please wait .....");
	MOVLW       1
	MOVWF       FARG_Lcd_Out_row+0 
	MOVLW       2
	MOVWF       FARG_Lcd_Out_column+0 
	MOVLW       ?lstr23_MyProject+0
	MOVWF       FARG_Lcd_Out_text+0 
	MOVLW       hi_addr(?lstr23_MyProject+0)
	MOVWF       FARG_Lcd_Out_text+1 
	CALL        _Lcd_Out+0, 0
;MyProject.c,243 :: 		uart1_write_at("AT+CIPMUX=1");
	MOVLW       ?lstr24_MyProject+0
	MOVWF       FARG_uart1_write_at__data+0 
	MOVLW       hi_addr(?lstr24_MyProject+0)
	MOVWF       FARG_uart1_write_at__data+1 
	CALL        _uart1_write_at+0, 0
;MyProject.c,244 :: 		while( respons_success()!=OK);
L_wifi_config35:
	CALL        _respons_success+0, 0
	MOVF        R0, 0 
	XORLW       1
	BTFSC       STATUS+0, 2 
	GOTO        L_wifi_config36
	GOTO        L_wifi_config35
L_wifi_config36:
;MyProject.c,245 :: 		delay_ms(1000);
	MOVLW       6
	MOVWF       R11, 0
	MOVLW       19
	MOVWF       R12, 0
	MOVLW       173
	MOVWF       R13, 0
L_wifi_config37:
	DECFSZ      R13, 1, 1
	BRA         L_wifi_config37
	DECFSZ      R12, 1, 1
	BRA         L_wifi_config37
	DECFSZ      R11, 1, 1
	BRA         L_wifi_config37
	NOP
	NOP
;MyProject.c,247 :: 		lcd_cmd(_LCD_CLEAR);
	MOVLW       1
	MOVWF       FARG_Lcd_Cmd_out_char+0 
	CALL        _Lcd_Cmd+0, 0
;MyProject.c,249 :: 		while(1){
L_wifi_config38:
;MyProject.c,250 :: 		lcd_out(1,1,"connecting to AP");
	MOVLW       1
	MOVWF       FARG_Lcd_Out_row+0 
	MOVLW       1
	MOVWF       FARG_Lcd_Out_column+0 
	MOVLW       ?lstr25_MyProject+0
	MOVWF       FARG_Lcd_Out_text+0 
	MOVLW       hi_addr(?lstr25_MyProject+0)
	MOVWF       FARG_Lcd_Out_text+1 
	CALL        _Lcd_Out+0, 0
;MyProject.c,251 :: 		UART1_Write_Text("AT+CWJAP");
	MOVLW       ?lstr26_MyProject+0
	MOVWF       FARG_UART1_Write_Text_uart_text+0 
	MOVLW       hi_addr(?lstr26_MyProject+0)
	MOVWF       FARG_UART1_Write_Text_uart_text+1 
	CALL        _UART1_Write_Text+0, 0
;MyProject.c,252 :: 		UART1_Write('"');
	MOVLW       34
	MOVWF       FARG_UART1_Write_data_+0 
	CALL        _UART1_Write+0, 0
;MyProject.c,253 :: 		UART1_Write_Text(SSID);
	MOVLW       _SSID+0
	MOVWF       FARG_UART1_Write_Text_uart_text+0 
	MOVLW       hi_addr(_SSID+0)
	MOVWF       FARG_UART1_Write_Text_uart_text+1 
	CALL        _UART1_Write_Text+0, 0
;MyProject.c,254 :: 		UART1_Write('"');
	MOVLW       34
	MOVWF       FARG_UART1_Write_data_+0 
	CALL        _UART1_Write+0, 0
;MyProject.c,255 :: 		UART1_Write(',');
	MOVLW       44
	MOVWF       FARG_UART1_Write_data_+0 
	CALL        _UART1_Write+0, 0
;MyProject.c,256 :: 		UART1_Write_Text(password);
	MOVLW       _password+0
	MOVWF       FARG_UART1_Write_Text_uart_text+0 
	MOVLW       hi_addr(_password+0)
	MOVWF       FARG_UART1_Write_Text_uart_text+1 
	CALL        _UART1_Write_Text+0, 0
;MyProject.c,257 :: 		UART1_Write('"');
	MOVLW       34
	MOVWF       FARG_UART1_Write_data_+0 
	CALL        _UART1_Write+0, 0
;MyProject.c,258 :: 		new_line();
	CALL        _new_line+0, 0
;MyProject.c,259 :: 		if( respons_success()!=OK){
	CALL        _respons_success+0, 0
	MOVF        R0, 0 
	XORLW       1
	BTFSC       STATUS+0, 2 
	GOTO        L_wifi_config40
;MyProject.c,260 :: 		lcd_out(1,2,"success");
	MOVLW       1
	MOVWF       FARG_Lcd_Out_row+0 
	MOVLW       2
	MOVWF       FARG_Lcd_Out_column+0 
	MOVLW       ?lstr27_MyProject+0
	MOVWF       FARG_Lcd_Out_text+0 
	MOVLW       hi_addr(?lstr27_MyProject+0)
	MOVWF       FARG_Lcd_Out_text+1 
	CALL        _Lcd_Out+0, 0
;MyProject.c,261 :: 		break;
	GOTO        L_wifi_config39
;MyProject.c,263 :: 		}
L_wifi_config40:
;MyProject.c,265 :: 		lcd_cmd(_LCD_CLEAR);
	MOVLW       1
	MOVWF       FARG_Lcd_Cmd_out_char+0 
	CALL        _Lcd_Cmd+0, 0
;MyProject.c,266 :: 		lcd_out(1,1,"try agine");
	MOVLW       1
	MOVWF       FARG_Lcd_Out_row+0 
	MOVLW       1
	MOVWF       FARG_Lcd_Out_column+0 
	MOVLW       ?lstr28_MyProject+0
	MOVWF       FARG_Lcd_Out_text+0 
	MOVLW       hi_addr(?lstr28_MyProject+0)
	MOVWF       FARG_Lcd_Out_text+1 
	CALL        _Lcd_Out+0, 0
;MyProject.c,267 :: 		delay_ms(1000);
	MOVLW       6
	MOVWF       R11, 0
	MOVLW       19
	MOVWF       R12, 0
	MOVLW       173
	MOVWF       R13, 0
L_wifi_config42:
	DECFSZ      R13, 1, 1
	BRA         L_wifi_config42
	DECFSZ      R12, 1, 1
	BRA         L_wifi_config42
	DECFSZ      R11, 1, 1
	BRA         L_wifi_config42
	NOP
	NOP
;MyProject.c,271 :: 		}
	GOTO        L_wifi_config38
L_wifi_config39:
;MyProject.c,272 :: 		lcd_cmd(_LCD_CLEAR);
	MOVLW       1
	MOVWF       FARG_Lcd_Cmd_out_char+0 
	CALL        _Lcd_Cmd+0, 0
;MyProject.c,273 :: 		lcd_out(1,1,"check connection ");
	MOVLW       1
	MOVWF       FARG_Lcd_Out_row+0 
	MOVLW       1
	MOVWF       FARG_Lcd_Out_column+0 
	MOVLW       ?lstr29_MyProject+0
	MOVWF       FARG_Lcd_Out_text+0 
	MOVLW       hi_addr(?lstr29_MyProject+0)
	MOVWF       FARG_Lcd_Out_text+1 
	CALL        _Lcd_Out+0, 0
;MyProject.c,274 :: 		UART1_Write_Text("AT+CWJAP=?");
	MOVLW       ?lstr30_MyProject+0
	MOVWF       FARG_UART1_Write_Text_uart_text+0 
	MOVLW       hi_addr(?lstr30_MyProject+0)
	MOVWF       FARG_UART1_Write_Text_uart_text+1 
	CALL        _UART1_Write_Text+0, 0
;MyProject.c,275 :: 		while( respons_success()!=OK);
L_wifi_config43:
	CALL        _respons_success+0, 0
	MOVF        R0, 0 
	XORLW       1
	BTFSC       STATUS+0, 2 
	GOTO        L_wifi_config44
	GOTO        L_wifi_config43
L_wifi_config44:
;MyProject.c,276 :: 		LCD_OUT(1,2,"WIFI CONNECTED");
	MOVLW       1
	MOVWF       FARG_Lcd_Out_row+0 
	MOVLW       2
	MOVWF       FARG_Lcd_Out_column+0 
	MOVLW       ?lstr31_MyProject+0
	MOVWF       FARG_Lcd_Out_text+0 
	MOVLW       hi_addr(?lstr31_MyProject+0)
	MOVWF       FARG_Lcd_Out_text+1 
	CALL        _Lcd_Out+0, 0
;MyProject.c,277 :: 		delay_ms(1000);
	MOVLW       6
	MOVWF       R11, 0
	MOVLW       19
	MOVWF       R12, 0
	MOVLW       173
	MOVWF       R13, 0
L_wifi_config45:
	DECFSZ      R13, 1, 1
	BRA         L_wifi_config45
	DECFSZ      R12, 1, 1
	BRA         L_wifi_config45
	DECFSZ      R11, 1, 1
	BRA         L_wifi_config45
	NOP
	NOP
;MyProject.c,280 :: 		lcd_cmd(_LCD_CLEAR);
	MOVLW       1
	MOVWF       FARG_Lcd_Cmd_out_char+0 
	CALL        _Lcd_Cmd+0, 0
;MyProject.c,281 :: 		lcd_out(1,1,"configure tcp server");
	MOVLW       1
	MOVWF       FARG_Lcd_Out_row+0 
	MOVLW       1
	MOVWF       FARG_Lcd_Out_column+0 
	MOVLW       ?lstr32_MyProject+0
	MOVWF       FARG_Lcd_Out_text+0 
	MOVLW       hi_addr(?lstr32_MyProject+0)
	MOVWF       FARG_Lcd_Out_text+1 
	CALL        _Lcd_Out+0, 0
;MyProject.c,282 :: 		UART1_Write_Text("AT+CIPSEVER=1");
	MOVLW       ?lstr33_MyProject+0
	MOVWF       FARG_UART1_Write_Text_uart_text+0 
	MOVLW       hi_addr(?lstr33_MyProject+0)
	MOVWF       FARG_UART1_Write_Text_uart_text+1 
	CALL        _UART1_Write_Text+0, 0
;MyProject.c,283 :: 		UART1_Write(',');
	MOVLW       44
	MOVWF       FARG_UART1_Write_data_+0 
	CALL        _UART1_Write+0, 0
;MyProject.c,284 :: 		UART1_Write_Text(port);
	MOVLW       _port+0
	MOVWF       FARG_UART1_Write_Text_uart_text+0 
	MOVLW       hi_addr(_port+0)
	MOVWF       FARG_UART1_Write_Text_uart_text+1 
	CALL        _UART1_Write_Text+0, 0
;MyProject.c,285 :: 		new_line();
	CALL        _new_line+0, 0
;MyProject.c,286 :: 		while( respons_success()!=OK);
L_wifi_config46:
	CALL        _respons_success+0, 0
	MOVF        R0, 0 
	XORLW       1
	BTFSC       STATUS+0, 2 
	GOTO        L_wifi_config47
	GOTO        L_wifi_config46
L_wifi_config47:
;MyProject.c,287 :: 		reset_buff();
	CALL        _reset_buff+0, 0
;MyProject.c,288 :: 		get_ip_mac();
	CALL        _get_ip_mac+0, 0
;MyProject.c,290 :: 		}
L_end_wifi_config:
	RETURN      0
; end of _wifi_config

_interrupt:

;MyProject.c,291 :: 		void interrupt(){
;MyProject.c,292 :: 		INTCON.GIE=0;
	BCF         INTCON+0, 7 
;MyProject.c,293 :: 		if( PIE1.RCIE==1){
	BTFSS       PIE1+0, 5 
	GOTO        L_interrupt48
;MyProject.c,294 :: 		temp= UART1_Read();
	CALL        _UART1_Read+0, 0
	MOVF        R0, 0 
	MOVWF       _temp+0 
;MyProject.c,295 :: 		switch(temp){
	GOTO        L_interrupt49
;MyProject.c,296 :: 		case LF:
L_interrupt51:
;MyProject.c,297 :: 		if(data_len >1){
	MOVLW       0
	MOVWF       R0 
	MOVF        _data_len+1, 0 
	SUBWF       R0, 0 
	BTFSS       STATUS+0, 2 
	GOTO        L__interrupt77
	MOVF        _data_len+0, 0 
	SUBLW       1
L__interrupt77:
	BTFSC       STATUS+0, 0 
	GOTO        L_interrupt52
;MyProject.c,298 :: 		data ready=1;
;MyProject.c,299 :: 		}
L_interrupt52:
;MyProject.c,300 :: 		break;
	GOTO        L_interrupt50
;MyProject.c,301 :: 		case CR:
L_interrupt53:
;MyProject.c,302 :: 		buff[data_len]=0;
	MOVLW       _buff+0
	ADDWF       _data_len+0, 0 
	MOVWF       FSR1 
	MOVLW       hi_addr(_buff+0)
	ADDWFC      _data_len+1, 0 
	MOVWF       FSR1H 
	CLRF        POSTINC1+0 
;MyProject.c,303 :: 		break;
	GOTO        L_interrupt50
;MyProject.c,304 :: 		default:
L_interrupt54:
;MyProject.c,305 :: 		buff[data_len]=temp ;
	MOVLW       _buff+0
	ADDWF       _data_len+0, 0 
	MOVWF       FSR1 
	MOVLW       hi_addr(_buff+0)
	ADDWFC      _data_len+1, 0 
	MOVWF       FSR1H 
	MOVF        _temp+0, 0 
	MOVWF       POSTINC1+0 
;MyProject.c,306 :: 		data_len++;
	INFSNZ      _data_len+0, 1 
	INCF        _data_len+1, 1 
;MyProject.c,307 :: 		}
	GOTO        L_interrupt50
L_interrupt49:
	MOVF        _temp+0, 0 
	XORLW       10
	BTFSC       STATUS+0, 2 
	GOTO        L_interrupt51
	MOVF        _temp+0, 0 
	XORLW       13
	BTFSC       STATUS+0, 2 
	GOTO        L_interrupt53
	GOTO        L_interrupt54
L_interrupt50:
;MyProject.c,308 :: 		PIE1.RCIE=0;
	BCF         PIE1+0, 5 
;MyProject.c,309 :: 		}
L_interrupt48:
;MyProject.c,310 :: 		INTCON.GIE=1;
	BSF         INTCON+0, 7 
;MyProject.c,312 :: 		}
L_end_interrupt:
L__interrupt76:
	RETFIE      1
; end of _interrupt

_interrupt_config:

;MyProject.c,313 :: 		void interrupt_config(){
;MyProject.c,314 :: 		INTCON.GIE=1;
	BSF         INTCON+0, 7 
;MyProject.c,315 :: 		INTCON.PEIE=1;
	BSF         INTCON+0, 6 
;MyProject.c,316 :: 		PIE1.RCIE=1;
	BSF         PIE1+0, 5 
;MyProject.c,317 :: 		}
L_end_interrupt_config:
	RETURN      0
; end of _interrupt_config

_check_connection:

;MyProject.c,318 :: 		void check_connection (){
;MyProject.c,319 :: 		if (data_ready ==1){
	MOVF        _data_ready+0, 0 
	XORLW       1
	BTFSS       STATUS+0, 2 
	GOTO        L_check_connection55
;MyProject.c,320 :: 		if ( find_text( buff ,"+IPD") ==1){
	MOVLW       _buff+0
	MOVWF       FARG_find_text_string+0 
	MOVLW       hi_addr(_buff+0)
	MOVWF       FARG_find_text_string+1 
	MOVLW       ?lstr34_MyProject+0
	MOVWF       FARG_find_text_string_find+0 
	MOVLW       hi_addr(?lstr34_MyProject+0)
	MOVWF       FARG_find_text_string_find+1 
	CALL        _find_text+0, 0
	MOVF        R0, 0 
	XORLW       1
	BTFSS       STATUS+0, 2 
	GOTO        L_check_connection56
;MyProject.c,342 :: 		function();
	CALL        _function+0, 0
;MyProject.c,343 :: 		}
L_check_connection56:
;MyProject.c,344 :: 		}
L_check_connection55:
;MyProject.c,345 :: 		}
L_end_check_connection:
	RETURN      0
; end of _check_connection

_get_size:

;MyProject.c,346 :: 		unsigned int get_size(){
;MyProject.c,347 :: 		unsigned int size_data=0;
	CLRF        get_size_size_data_L0+0 
	CLRF        get_size_size_data_L0+1 
;MyProject.c,348 :: 		size_data = strlen(*webpage_text);
	MOVLW       60
	MOVWF       FARG_strlen_s+0 
	MOVLW       0
	MOVWF       FARG_strlen_s+1 
	CALL        _strlen+0, 0
	MOVF        R0, 0 
	MOVWF       get_size_size_data_L0+0 
	MOVF        R1, 0 
	MOVWF       get_size_size_data_L0+1 
;MyProject.c,349 :: 		size_data += strlen (connection_id);
	MOVLW       _connection_id+0
	MOVWF       FARG_strlen_s+0 
	MOVLW       hi_addr(_connection_id+0)
	MOVWF       FARG_strlen_s+1 
	CALL        _strlen+0, 0
	MOVF        R0, 0 
	ADDWF       get_size_size_data_L0+0, 1 
	MOVF        R1, 0 
	ADDWFC      get_size_size_data_L0+1, 1 
;MyProject.c,350 :: 		size_data += strlen(*webpage_text2);
	MOVLW       60
	MOVWF       FARG_strlen_s+0 
	MOVLW       0
	MOVWF       FARG_strlen_s+1 
	CALL        _strlen+0, 0
	MOVF        get_size_size_data_L0+0, 0 
	ADDWF       R0, 1 
	MOVF        get_size_size_data_L0+1, 0 
	ADDWFC      R1, 1 
	MOVF        R0, 0 
	MOVWF       get_size_size_data_L0+0 
	MOVF        R1, 0 
	MOVWF       get_size_size_data_L0+1 
;MyProject.c,351 :: 		return size_data;
;MyProject.c,352 :: 		}
L_end_get_size:
	RETURN      0
; end of _get_size

_get_counter:

;MyProject.c,353 :: 		void get_counter (){
;MyProject.c,354 :: 		if(counter <1000){
	MOVLW       3
	SUBWF       _counter+1, 0 
	BTFSS       STATUS+0, 2 
	GOTO        L__get_counter82
	MOVLW       232
	SUBWF       _counter+0, 0 
L__get_counter82:
	BTFSC       STATUS+0, 0 
	GOTO        L_get_counter57
;MyProject.c,355 :: 		counter++;
	INFSNZ      _counter+0, 1 
	INCF        _counter+1, 1 
;MyProject.c,356 :: 		}
	GOTO        L_get_counter58
L_get_counter57:
;MyProject.c,358 :: 		counter=0;
	CLRF        _counter+0 
	CLRF        _counter+1 
L_get_counter58:
;MyProject.c,359 :: 		wordtostr (counter,counter_text);
	MOVF        _counter+0, 0 
	MOVWF       FARG_WordToStr_input+0 
	MOVF        _counter+1, 0 
	MOVWF       FARG_WordToStr_input+1 
	MOVLW       _counter_text+0
	MOVWF       FARG_WordToStr_output+0 
	MOVLW       hi_addr(_counter_text+0)
	MOVWF       FARG_WordToStr_output+1 
	CALL        _WordToStr+0, 0
;MyProject.c,360 :: 		ltrim(counter_text);
	MOVLW       _counter_text+0
	MOVWF       FARG_Ltrim_string+0 
	MOVLW       hi_addr(_counter_text+0)
	MOVWF       FARG_Ltrim_string+1 
	CALL        _Ltrim+0, 0
;MyProject.c,361 :: 		}
L_end_get_counter:
	RETURN      0
; end of _get_counter

_get_send_comand:

;MyProject.c,362 :: 		void get_send_comand (char *connection_id, unsigned int size_data ,char *send_comand){
;MyProject.c,364 :: 		wordtostr(size_data,size_data_text);
	MOVF        FARG_get_send_comand_size_data+0, 0 
	MOVWF       FARG_WordToStr_input+0 
	MOVF        FARG_get_send_comand_size_data+1, 0 
	MOVWF       FARG_WordToStr_input+1 
	MOVLW       get_send_comand_size_data_text_L0+0
	MOVWF       FARG_WordToStr_output+0 
	MOVLW       hi_addr(get_send_comand_size_data_text_L0+0)
	MOVWF       FARG_WordToStr_output+1 
	CALL        _WordToStr+0, 0
;MyProject.c,365 :: 		ltrim(size_data_text);
	MOVLW       get_send_comand_size_data_text_L0+0
	MOVWF       FARG_Ltrim_string+0 
	MOVLW       hi_addr(get_send_comand_size_data_text_L0+0)
	MOVWF       FARG_Ltrim_string+1 
	CALL        _Ltrim+0, 0
;MyProject.c,366 :: 		strcpy(send_comand,"AT+CIPSEND=");
	MOVF        FARG_get_send_comand_send_comand+0, 0 
	MOVWF       FARG_strcpy_to+0 
	MOVF        FARG_get_send_comand_send_comand+1, 0 
	MOVWF       FARG_strcpy_to+1 
	MOVLW       ?lstr35_MyProject+0
	MOVWF       FARG_strcpy_from+0 
	MOVLW       hi_addr(?lstr35_MyProject+0)
	MOVWF       FARG_strcpy_from+1 
	CALL        _strcpy+0, 0
;MyProject.c,367 :: 		strcat(send_comand,connection_id);
	MOVF        FARG_get_send_comand_send_comand+0, 0 
	MOVWF       FARG_strcat_to+0 
	MOVF        FARG_get_send_comand_send_comand+1, 0 
	MOVWF       FARG_strcat_to+1 
	MOVF        FARG_get_send_comand_connection_id+0, 0 
	MOVWF       FARG_strcat_from+0 
	MOVF        FARG_get_send_comand_connection_id+1, 0 
	MOVWF       FARG_strcat_from+1 
	CALL        _strcat+0, 0
;MyProject.c,368 :: 		strcat(send_comand,",");
	MOVF        FARG_get_send_comand_send_comand+0, 0 
	MOVWF       FARG_strcat_to+0 
	MOVF        FARG_get_send_comand_send_comand+1, 0 
	MOVWF       FARG_strcat_to+1 
	MOVLW       ?lstr36_MyProject+0
	MOVWF       FARG_strcat_from+0 
	MOVLW       hi_addr(?lstr36_MyProject+0)
	MOVWF       FARG_strcat_from+1 
	CALL        _strcat+0, 0
;MyProject.c,369 :: 		strcat(send_comand,size_data_text);
	MOVF        FARG_get_send_comand_send_comand+0, 0 
	MOVWF       FARG_strcat_to+0 
	MOVF        FARG_get_send_comand_send_comand+1, 0 
	MOVWF       FARG_strcat_to+1 
	MOVLW       get_send_comand_size_data_text_L0+0
	MOVWF       FARG_strcat_from+0 
	MOVLW       hi_addr(get_send_comand_size_data_text_L0+0)
	MOVWF       FARG_strcat_from+1 
	CALL        _strcat+0, 0
;MyProject.c,371 :: 		}
L_end_get_send_comand:
	RETURN      0
; end of _get_send_comand

_function:

;MyProject.c,372 :: 		void function()
;MyProject.c,387 :: 		get_string( buff,"FLOOR=",6,"&",0,target_x);
	MOVLW       _buff+0
	MOVWF       FARG_get_string_string+0 
	MOVLW       hi_addr(_buff+0)
	MOVWF       FARG_get_string_string+1 
	MOVLW       ?lstr37_MyProject+0
	MOVWF       FARG_get_string_from+0 
	MOVLW       hi_addr(?lstr37_MyProject+0)
	MOVWF       FARG_get_string_from+1 
	MOVLW       6
	MOVWF       FARG_get_string__from+0 
	MOVLW       ?lstr38_MyProject+0
	MOVWF       FARG_get_string_to+0 
	MOVLW       hi_addr(?lstr38_MyProject+0)
	MOVWF       FARG_get_string_to+1 
	CLRF        FARG_get_string__to+0 
	MOVLW       _target_x+0
	MOVWF       FARG_get_string_get+0 
	MOVLW       hi_addr(_target_x+0)
	MOVWF       FARG_get_string_get+1 
	CALL        _get_string+0, 0
;MyProject.c,388 :: 		lcd_out(1,1,target_x);
	MOVLW       1
	MOVWF       FARG_Lcd_Out_row+0 
	MOVLW       1
	MOVWF       FARG_Lcd_Out_column+0 
	MOVLW       _target_x+0
	MOVWF       FARG_Lcd_Out_text+0 
	MOVLW       hi_addr(_target_x+0)
	MOVWF       FARG_Lcd_Out_text+1 
	CALL        _Lcd_Out+0, 0
;MyProject.c,389 :: 		get_string( buff,"ROOM=",5,"en",0,target_y);
	MOVLW       _buff+0
	MOVWF       FARG_get_string_string+0 
	MOVLW       hi_addr(_buff+0)
	MOVWF       FARG_get_string_string+1 
	MOVLW       ?lstr39_MyProject+0
	MOVWF       FARG_get_string_from+0 
	MOVLW       hi_addr(?lstr39_MyProject+0)
	MOVWF       FARG_get_string_from+1 
	MOVLW       5
	MOVWF       FARG_get_string__from+0 
	MOVLW       ?lstr40_MyProject+0
	MOVWF       FARG_get_string_to+0 
	MOVLW       hi_addr(?lstr40_MyProject+0)
	MOVWF       FARG_get_string_to+1 
	CLRF        FARG_get_string__to+0 
	MOVLW       _target_y+0
	MOVWF       FARG_get_string_get+0 
	MOVLW       hi_addr(_target_y+0)
	MOVWF       FARG_get_string_get+1 
	CALL        _get_string+0, 0
;MyProject.c,390 :: 		lcd_out(2,1,target_y);
	MOVLW       2
	MOVWF       FARG_Lcd_Out_row+0 
	MOVLW       1
	MOVWF       FARG_Lcd_Out_column+0 
	MOVLW       _target_y+0
	MOVWF       FARG_Lcd_Out_text+0 
	MOVLW       hi_addr(_target_y+0)
	MOVWF       FARG_Lcd_Out_text+1 
	CALL        _Lcd_Out+0, 0
;MyProject.c,394 :: 		}
L_end_function:
	RETURN      0
; end of _function
